target datalayout = "e-m:e-p270:32:32-p271:32:32-p272:64:64-i64:64-i128:128-f80:128-n8:16:32:64-S128"
target triple = "x86_64-pc-linux-gnu"

%struct.H5R_ref_priv_t = type { %union.anon, i64, i32, i8, i8, i8 }
%union.anon = type { %struct.H5R_ref_priv_reg_t }
%struct.H5R_ref_priv_reg_t = type { %struct.H5R_ref_priv_obj_t, ptr }
%struct.H5R_ref_priv_obj_t = type { %struct.H5O_token_t, ptr }
%struct.H5O_token_t = type { [16 x i8] }

@H5R_init_g = global i8 0, align 1
@H5_libterm_g = external global i8, align 1
@.str = private unnamed_addr constant [100 x i8] c"generated/home/dtcxzyw/WorkSpace/Projects/compilers/llvm-opt-benchmark/bench/hdf5/hdf5/src/H5Rint.c\00", align 1
@H5E_REFERENCE_g = external global i64, align 8
@H5E_CANTSET_g = external global i64, align 8
@.str.1 = private unnamed_addr constant [27 x i8] c"unable to set object token\00", align 1
@H5E_CANTENCODE_g = external global i64, align 8
@.str.2 = private unnamed_addr constant [34 x i8] c"unable to determine encoding size\00", align 1
@__func__.H5R__create_region = private unnamed_addr constant [19 x i8] c"H5R__create_region\00", align 1
@H5E_CANTCOPY_g = external global i64, align 8
@.str.3 = private unnamed_addr constant [25 x i8] c"unable to copy dataspace\00", align 1

; Function Attrs: nounwind uwtable
define i32 @H5R__set_obj_token(ptr noundef %0, ptr noundef %1, i64 noundef %2) #0 {
  %4 = alloca ptr, align 8
  %5 = alloca ptr, align 8
  %6 = alloca i64, align 8
  %7 = alloca i32, align 4
  store ptr %0, ptr %4, align 8, !tbaa !14
  store ptr %1, ptr %5, align 8, !tbaa !9
  store i64 %2, ptr %6, align 8, !tbaa !12
  call void @llvm.lifetime.start.p0(i64 4, ptr %7) #9
  store i32 0, ptr %7, align 4, !tbaa !16
  %8 = load i8, ptr @H5R_init_g, align 1, !tbaa !3, !range !7, !noundef !8
  %9 = trunc i8 %8 to i1
  br i1 %9, label %14, label %10

10:                                               ; preds = %3
  %11 = load i8, ptr @H5_libterm_g, align 1, !tbaa !3, !range !7, !noundef !8
  %12 = trunc i8 %11 to i1
  %13 = xor i1 %12, true
  br label %14

14:                                               ; preds = %10, %3
  %15 = phi i1 [ true, %3 ], [ %13, %10 ]
  %16 = xor i1 %15, true
  %17 = xor i1 %16, true
  %18 = zext i1 %17 to i32
  %19 = sext i32 %18 to i64
  %20 = call i64 @llvm.expect.i64(i64 %19, i64 1)
  %21 = icmp ne i64 %20, 0
  br i1 %21, label %22, label %32

22:                                               ; preds = %14
  %23 = load ptr, ptr %4, align 8, !tbaa !14
  %24 = getelementptr inbounds nuw %struct.H5R_ref_priv_t, ptr %23, i32 0, i32 0
  %25 = getelementptr inbounds nuw %struct.H5R_ref_priv_obj_t, ptr %24, i32 0, i32 0
  %26 = load ptr, ptr %5, align 8, !tbaa !9
  %27 = load i64, ptr %6, align 8, !tbaa !12
  call void @llvm.memcpy.p0.p0.i64(ptr align 8 %25, ptr align 1 %26, i64 %27, i1 false)
  %28 = load i64, ptr %6, align 8, !tbaa !12
  %29 = trunc i64 %28 to i8
  %30 = load ptr, ptr %4, align 8, !tbaa !14
  %31 = getelementptr inbounds nuw %struct.H5R_ref_priv_t, ptr %30, i32 0, i32 4
  store i8 %29, ptr %31, align 1, !tbaa !23
  br label %32

32:                                               ; preds = %22, %14
  %33 = load i32, ptr %7, align 4, !tbaa !16
  call void @llvm.lifetime.end.p0(i64 4, ptr %7) #9
  ret i32 %33
}

; Function Attrs: nounwind uwtable
define i32 @H5R__create_region(ptr noundef %0, i64 noundef %1, ptr noundef %2, ptr noundef %3) #0 {
  %5 = alloca ptr, align 8
  %6 = alloca i64, align 8
  %7 = alloca ptr, align 8
  %8 = alloca ptr, align 8
  %9 = alloca i64, align 8
  %10 = alloca i32, align 4
  %11 = alloca i8, align 1
  store ptr %0, ptr %5, align 8, !tbaa !9
  store i64 %1, ptr %6, align 8, !tbaa !12
  store ptr %2, ptr %7, align 8, !tbaa !28
  store ptr %3, ptr %8, align 8, !tbaa !14
  call void @llvm.lifetime.start.p0(i64 8, ptr %9) #9
  call void @llvm.lifetime.start.p0(i64 4, ptr %10) #9
  store i32 0, ptr %10, align 4, !tbaa !16
  call void @llvm.lifetime.start.p0(i64 1, ptr %11) #9
  store i8 0, ptr %11, align 1, !tbaa !3
  %12 = load i8, ptr @H5R_init_g, align 1, !tbaa !3, !range !7, !noundef !8
  %13 = trunc i8 %12 to i1
  br i1 %13, label %18, label %14

14:                                               ; preds = %4
  %15 = load i8, ptr @H5_libterm_g, align 1, !tbaa !3, !range !7, !noundef !8
  %16 = trunc i8 %15 to i1
  %17 = xor i1 %16, true
  br label %18

18:                                               ; preds = %14, %4
  %19 = phi i1 [ true, %4 ], [ %17, %14 ]
  %20 = xor i1 %19, true
  %21 = xor i1 %20, true
  %22 = zext i1 %21 to i32
  %23 = sext i32 %22 to i64
  %24 = call i64 @llvm.expect.i64(i64 %23, i64 1)
  %25 = icmp ne i64 %24, 0
  br i1 %25, label %26, label %135

26:                                               ; preds = %18
  %27 = load ptr, ptr %8, align 8, !tbaa !14
  %28 = getelementptr inbounds nuw %struct.H5R_ref_priv_t, ptr %27, i32 0, i32 0
  %29 = getelementptr inbounds nuw %struct.H5R_ref_priv_obj_t, ptr %28, i32 0, i32 1
  store ptr null, ptr %29, align 8, !tbaa !18
  %30 = load ptr, ptr %7, align 8, !tbaa !28
  %31 = call ptr @H5S_copy(ptr noundef %30, i1 noundef zeroext false, i1 noundef zeroext true)
  %32 = load ptr, ptr %8, align 8, !tbaa !14
  %33 = getelementptr inbounds nuw %struct.H5R_ref_priv_t, ptr %32, i32 0, i32 0
  %34 = getelementptr inbounds nuw %struct.H5R_ref_priv_reg_t, ptr %33, i32 0, i32 1
  store ptr %31, ptr %34, align 8, !tbaa !18
  %35 = icmp eq ptr null, %31
  br i1 %35, label %36, label %55

36:                                               ; preds = %26
  br label %37

37:                                               ; preds = %36
  br label %38

38:                                               ; preds = %37
  br label %39

39:                                               ; preds = %38
  %40 = load i64, ptr @H5E_REFERENCE_g, align 8, !tbaa !12
  %41 = load i64, ptr @H5E_CANTCOPY_g, align 8, !tbaa !12
  %42 = call i32 (ptr, ptr, i32, i64, i64, ptr, ...) @H5E_printf_stack(ptr noundef @.str, ptr noundef @__func__.H5R__create_region, i32 noundef 232, i64 noundef %40, i64 noundef %41, ptr noundef @.str.3)
  br label %43

43:                                               ; preds = %39
  br label %44

44:                                               ; preds = %43
  store i8 1, ptr %11, align 1, !tbaa !3
  %45 = load i8, ptr %11, align 1, !tbaa !3, !range !7, !noundef !8
  %46 = trunc i8 %45 to i1
  %47 = zext i1 %46 to i8
  store i8 %47, ptr %11, align 1, !tbaa !3
  br label %48

48:                                               ; preds = %44
  br label %49

49:                                               ; preds = %48
  br label %50

50:                                               ; preds = %49
  store i32 -1, ptr %10, align 4, !tbaa !16
  br label %115

51:                                               ; No predecessors!
  br label %52

52:                                               ; preds = %51
  br label %53

53:                                               ; preds = %52
  br label %54

54:                                               ; preds = %53
  br label %55

55:                                               ; preds = %54, %26
  %56 = load ptr, ptr %8, align 8, !tbaa !14
  %57 = getelementptr inbounds nuw %struct.H5R_ref_priv_t, ptr %56, i32 0, i32 1
  store i64 -1, ptr %57, align 8, !tbaa !19
  %58 = load ptr, ptr %8, align 8, !tbaa !14
  %59 = getelementptr inbounds nuw %struct.H5R_ref_priv_t, ptr %58, i32 0, i32 3
  store i8 3, ptr %59, align 4, !tbaa !21
  %60 = load ptr, ptr %8, align 8, !tbaa !14
  %61 = load ptr, ptr %5, align 8, !tbaa !9
  %62 = load i64, ptr %6, align 8, !tbaa !12
  %63 = call i32 @H5R__set_obj_token(ptr noundef %60, ptr noundef %61, i64 noundef %62)
  %64 = icmp slt i32 %63, 0
  br i1 %64, label %65, label %84

65:                                               ; preds = %55
  br label %66

66:                                               ; preds = %65
  br label %67

67:                                               ; preds = %66
  br label %68

68:                                               ; preds = %67
  %69 = load i64, ptr @H5E_REFERENCE_g, align 8, !tbaa !12
  %70 = load i64, ptr @H5E_CANTSET_g, align 8, !tbaa !12
  %71 = call i32 (ptr, ptr, i32, i64, i64, ptr, ...) @H5E_printf_stack(ptr noundef @.str, ptr noundef @__func__.H5R__create_region, i32 noundef 237, i64 noundef %69, i64 noundef %70, ptr noundef @.str.1)
  br label %72

72:                                               ; preds = %68
  br label %73

73:                                               ; preds = %72
  store i8 1, ptr %11, align 1, !tbaa !3
  %74 = load i8, ptr %11, align 1, !tbaa !3, !range !7, !noundef !8
  %75 = trunc i8 %74 to i1
  %76 = zext i1 %75 to i8
  store i8 %76, ptr %11, align 1, !tbaa !3
  br label %77

77:                                               ; preds = %73
  br label %78

78:                                               ; preds = %77
  br label %79

79:                                               ; preds = %78
  store i32 -1, ptr %10, align 4, !tbaa !16
  br label %115

80:                                               ; No predecessors!
  br label %81

81:                                               ; preds = %80
  br label %82

82:                                               ; preds = %81
  br label %83

83:                                               ; preds = %82
  br label %84

84:                                               ; preds = %83, %55
  %85 = load ptr, ptr %8, align 8, !tbaa !14
  %86 = call i32 @H5R__encode(ptr noundef null, ptr noundef %85, ptr noundef null, ptr noundef %9, i32 noundef 0)
  %87 = icmp slt i32 %86, 0
  br i1 %87, label %88, label %107

88:                                               ; preds = %84
  br label %89

89:                                               ; preds = %88
  br label %90

90:                                               ; preds = %89
  br label %91

91:                                               ; preds = %90
  %92 = load i64, ptr @H5E_REFERENCE_g, align 8, !tbaa !12
  %93 = load i64, ptr @H5E_CANTENCODE_g, align 8, !tbaa !12
  %94 = call i32 (ptr, ptr, i32, i64, i64, ptr, ...) @H5E_printf_stack(ptr noundef @.str, ptr noundef @__func__.H5R__create_region, i32 noundef 241, i64 noundef %92, i64 noundef %93, ptr noundef @.str.2)
  br label %95

95:                                               ; preds = %91
  br label %96

96:                                               ; preds = %95
  store i8 1, ptr %11, align 1, !tbaa !3
  %97 = load i8, ptr %11, align 1, !tbaa !3, !range !7, !noundef !8
  %98 = trunc i8 %97 to i1
  %99 = zext i1 %98 to i8
  store i8 %99, ptr %11, align 1, !tbaa !3
  br label %100

100:                                              ; preds = %96
  br label %101

101:                                              ; preds = %100
  br label %102

102:                                              ; preds = %101
  store i32 -1, ptr %10, align 4, !tbaa !16
  br label %115

103:                                              ; No predecessors!
  br label %104

104:                                              ; preds = %103
  br label %105

105:                                              ; preds = %104
  br label %106

106:                                              ; preds = %105
  br label %107

107:                                              ; preds = %106, %84
  %108 = load i64, ptr %9, align 8, !tbaa !12
  %109 = trunc i64 %108 to i32
  %110 = load ptr, ptr %8, align 8, !tbaa !14
  %111 = getelementptr inbounds nuw %struct.H5R_ref_priv_t, ptr %110, i32 0, i32 2
  store i32 %109, ptr %111, align 8, !tbaa !22
  br label %112

112:                                              ; preds = %107
  br label %113

113:                                              ; preds = %112
  br label %114

114:                                              ; preds = %113
  br label %115

115:                                              ; preds = %114, %102, %79, %50
  %116 = load i32, ptr %10, align 4, !tbaa !16
  %117 = icmp slt i32 %116, 0
  br i1 %117, label %118, label %134

118:                                              ; preds = %115
  %119 = load ptr, ptr %8, align 8, !tbaa !14
  %120 = getelementptr inbounds nuw %struct.H5R_ref_priv_t, ptr %119, i32 0, i32 0
  %121 = getelementptr inbounds nuw %struct.H5R_ref_priv_reg_t, ptr %120, i32 0, i32 1
  %122 = load ptr, ptr %121, align 8, !tbaa !18
  %123 = icmp ne ptr %122, null
  br i1 %123, label %124, label %133

124:                                              ; preds = %118
  %125 = load ptr, ptr %8, align 8, !tbaa !14
  %126 = getelementptr inbounds nuw %struct.H5R_ref_priv_t, ptr %125, i32 0, i32 0
  %127 = getelementptr inbounds nuw %struct.H5R_ref_priv_reg_t, ptr %126, i32 0, i32 1
  %128 = load ptr, ptr %127, align 8, !tbaa !18
  %129 = call i32 @H5S_close(ptr noundef %128)
  %130 = load ptr, ptr %8, align 8, !tbaa !14
  %131 = getelementptr inbounds nuw %struct.H5R_ref_priv_t, ptr %130, i32 0, i32 0
  %132 = getelementptr inbounds nuw %struct.H5R_ref_priv_reg_t, ptr %131, i32 0, i32 1
  store ptr null, ptr %132, align 8, !tbaa !18
  br label %133

133:                                              ; preds = %124, %118
  br label %134

134:                                              ; preds = %133, %115
  br label %135

135:                                              ; preds = %134, %18
  %136 = load i32, ptr %10, align 4, !tbaa !16
  call void @llvm.lifetime.end.p0(i64 1, ptr %11) #9
  call void @llvm.lifetime.end.p0(i64 4, ptr %10) #9
  call void @llvm.lifetime.end.p0(i64 8, ptr %9) #9
  ret i32 %136
}