; Function Attrs: nounwind uwtable
define range(i32 -1, 1) i32 @H5R__create_region(ptr noundef readonly captures(none) %0, i64 noundef %1, ptr noundef %2, ptr noundef captures(none) %3) local_unnamed_addr #1 {
  %5 = alloca i64, align 8
  call void @llvm.lifetime.start.p0(i64 8, ptr nonnull %5) #15
  %6 = load i8, ptr @H5R_init_g, align 1, !tbaa !3, !range !7, !noundef !8
  %7 = trunc nuw i8 %6 to i1
  %8 = load i8, ptr @H5_libterm_g, align 1, !range !7
  %9 = trunc nuw i8 %8 to i1
  %10 = xor i1 %9, true
  %11 = select i1 %7, i1 true, i1 %10
  br i1 %11, label %12, label %46, !prof !9

12:                                               ; preds = %4
  %13 = getelementptr inbounds nuw i8, ptr %3, i64 16
  store ptr null, ptr %13, align 8, !tbaa !10
  %14 = tail call ptr @H5S_copy(ptr noundef %2, i1 noundef zeroext false, i1 noundef zeroext true) #15
  %15 = getelementptr inbounds nuw i8, ptr %3, i64 24
  store ptr %14, ptr %15, align 8, !tbaa !10
  %16 = icmp eq ptr %14, null
  br i1 %16, label %17, label %21

17:                                               ; preds = %12
  %18 = load i64, ptr @H5E_REFERENCE_g, align 8, !tbaa !17
  %19 = load i64, ptr @H5E_CANTCOPY_g, align 8, !tbaa !17
  %20 = tail call i32 (ptr, ptr, i32, i64, i64, ptr, ...) @H5E_printf_stack(ptr noundef nonnull @.str, ptr noundef nonnull @__func__.H5R__create_region, i32 noundef 232, i64 noundef %18, i64 noundef %19, ptr noundef nonnull @.str.3) #15
  br label %.critedge

21:                                               ; preds = %12
  %22 = getelementptr inbounds nuw i8, ptr %3, i64 32
  store i64 -1, ptr %22, align 8, !tbaa !11
  %23 = getelementptr inbounds nuw i8, ptr %3, i64 44
  store i8 3, ptr %23, align 4, !tbaa !15
  %24 = load i8, ptr @H5R_init_g, align 1, !tbaa !3, !range !7, !noundef !8
  %25 = trunc nuw i8 %24 to i1
  %26 = load i8, ptr @H5_libterm_g, align 1, !range !7
  %27 = trunc nuw i8 %26 to i1
  %28 = xor i1 %27, true
  %29 = select i1 %25, i1 true, i1 %28
  br i1 %29, label %30, label %H5R__set_obj_token.exit, !prof !9

30:                                               ; preds = %21
  tail call void @llvm.memcpy.p0.p0.i64(ptr nonnull align 8 %3, ptr readonly align 1 %0, i64 %1, i1 false)
  %31 = trunc i64 %1 to i8
  %32 = getelementptr inbounds nuw i8, ptr %3, i64 45
  store i8 %31, ptr %32, align 1, !tbaa !16
  br label %H5R__set_obj_token.exit

H5R__set_obj_token.exit:                          ; preds = %21, %30
  %33 = call i32 @H5R__encode(ptr noundef null, ptr noundef nonnull %3, ptr noundef null, ptr noundef nonnull %5, i32 noundef 0)
  %34 = icmp slt i32 %33, 0
  br i1 %34, label %35, label %39

35:                                               ; preds = %H5R__set_obj_token.exit
  %36 = load i64, ptr @H5E_REFERENCE_g, align 8, !tbaa !17
  %37 = load i64, ptr @H5E_CANTENCODE_g, align 8, !tbaa !17
  %38 = tail call i32 (ptr, ptr, i32, i64, i64, ptr, ...) @H5E_printf_stack(ptr noundef nonnull @.str, ptr noundef nonnull @__func__.H5R__create_region, i32 noundef 241, i64 noundef %36, i64 noundef %37, ptr noundef nonnull @.str.2) #15
  br label %.critedge

39:                                               ; preds = %H5R__set_obj_token.exit
  %40 = load i64, ptr %5, align 8, !tbaa !17
  %41 = trunc i64 %40 to i32
  %42 = getelementptr inbounds nuw i8, ptr %3, i64 40
  store i32 %41, ptr %42, align 8, !tbaa !18
  br label %46

.critedge:                                        ; preds = %35, %17
  %43 = load ptr, ptr %15, align 8, !tbaa !10
  %.not = icmp eq ptr %43, null
  br i1 %.not, label %46, label %44

44:                                               ; preds = %.critedge
  %45 = tail call i32 @H5S_close(ptr noundef nonnull %43) #15
  store ptr null, ptr %15, align 8, !tbaa !10
  br label %46

46:                                               ; preds = %39, %44, %.critedge, %4
  %.0 = phi i32 [ -1, %44 ], [ -1, %.critedge ], [ 0, %39 ], [ 0, %4 ]
  call void @llvm.lifetime.end.p0(i64 8, ptr nonnull %5) #15
  ret i32 %.0
}